Microchip MPLAB XC8 Compiler V2.32

Linker command line:

-W-3 --edf=D:\Program Files\Microchip\xc8\v2.32\pic\dat\en_msgs.txt -cn \
  -h+dist/default/production\eleclock.X.production.sym \
  --cmf=dist/default/production\eleclock.X.production.cmf -z -Q16F877A \
  -oC:\Users\penny\AppData\Local\Temp\xcAsmfo.4 --defsym=__MPLAB_BUILD=1 \
  -Mdist/default/production/eleclock.X.production.map -E1 -ver=XC8 Compiler \
  --acfsm=1493 -ASTACK=0110h-016Fh -pstack=STACK -ACODE=00h-07FFhx4 \
  -ASTRCODE=00h-01FFFh -ASTRING=00h-0FFhx32 -ACONST=00h-0FFhx32 \
  -AENTRY=00h-0FFhx32 -ACOMMON=070h-07Fh -ABANK0=020h-06Fh \
  -ABANK1=0A0h-0EFh -ABANK2=0110h-016Fh -ABANK3=0190h-01EFh \
  -ARAM=020h-06Fh,0A0h-0EFh,0110h-016Fh,0190h-01EFh \
  -AABS1=020h-07Fh,0A0h-0EFh,0110h-016Fh,0190h-01EFh -ASFR0=00h-01Fh \
  -ASFR1=080h-09Fh -ASFR2=0100h-010Fh -ASFR3=0180h-018Fh \
  -ACONFIG=02007h-02007h -DCONFIG=2 -AIDLOC=02000h-02003h -DIDLOC=2 \
  -AEEDATA=00h-0FFh/02100h -peeprom_data=EEDATA -DEEDATA=2 -DCODE=2 \
  -DSTRCODE=2 -DSTRING=2 -DCONST=2 -DENTRY=2 \
  -preset_vec=00h,intentry=04h,init,end_init -ppowerup=CODE -pcinit=CODE \
  -pfunctab=ENTRY -k C:\Users\penny\AppData\Local\Temp\xcAsmfo.o \
  dist/default/production\eleclock.X.production.o 

Object code version is 3.11

Machine type is 16F877A



                Name                               Link     Load   Length Selector   Space Scale
C:\Users\penny\AppData\Local\Temp\xcAsmfo.o
                end_init                              C        C        3        8       0
                reset_vec                             0        0        3        0       0
                config                             2007     2007        1        0       4
dist/default/production\eleclock.X.production.o
                cinit                                 F        F       3A        8       0
                intentry                              4        4        8        8       0
                config                             2007     2007        1        0       4
                text32                             1240     1240       1E     2480       0
                text31                             11BD     11BD        5     237A       0
                text30                              81A      81A       CB     1034       0
                text29                             125E     125E       22     24BC       0
                text28                              801      801       19     1002       0
                text27                             15E3     15E3       7F     2BC6       0
                text26                             1373     1373       46     26E6       0
                text25                             1337     1337       3C     266E       0
                text24                              AE6      AE6      143     15CC       0
                text23                              672      672      14C        8       0
                text22                             1711     1711       EF     2E22       0
                text21                              7FF      7FF        1        8       0
                text20                             14AF     14AF       63     295E       0
                text19                              7BE      7BE       40        8       0
                text18                             1512     1512       68     2A24       0
                text17                             13B9     13B9       48     2772       0
                text16                             1401     1401       53     2802       0
                text15                              9E3      9E3      103     13C6       0
                text14                              C29      C29      3D7     1852       0
                text13                             1223     1223       1D     2446       0
                text12                             11E6     11E6        D     23CC       0
                text11                             11CA     11CA        9     2394       0
                text10                             11D3     11D3        9     23A6       0
                text9                              11DC     11DC        A     23B8       0
                text8                              157A     157A       69     2AF4       0
                text7                              1454     1454       5B     28A8       0
                text6                              1301     1301       36     2602       0
                text5                              1662     1662       AF     2CC4       0
                text4                              12D0     12D0       31     25A0       0
                text3                              1280     1280       27     2500       0
                text2                              12A7     12A7       29     254E       0
                text1                               8E5      8E5       FE     11CA       0
                maintext                             49       49      629        8       0
                cstackBANK0                          20       20       33       20       1
                cstackCOMMON                         70       70        6       70       1
                clrtext                            11C2     11C2        8     2384       0
                inittext                           1210     1210       13     2420       0
                dataBANK1                            A0       A0       10       A0       1
                bssBANK1                             B0       B0        8       A0       1
                dataBANK0                            62       62        D       20       1
                bssBANK0                             53       53        F       20       1
                dataCOMMON                           7B       7B        1       70       1
                bssCOMMON                            76       76        5       70       1
                strings                            1000     1000        E     2000       0
                idataBANK1                         1200     1200       10     2400       0
                idataBANK0                         11F3     11F3        D     23E6       0
                idataCOMMON                         7FE      7FE        1        8       0

TOTAL           Name                               Link     Load   Length     Space
        CLASS   STACK          

        CLASS   CODE           
                end_init                              C        C        3         0
                cinit                                 F        F       3A         0
                intentry                              4        4        8         0
                reset_vec                             0        0        3         0
                text32                             1240     1240       1E         0
                text31                             11BD     11BD        5         0
                text30                              81A      81A       CB         0
                text29                             125E     125E       22         0
                text28                              801      801       19         0
                text27                             15E3     15E3       7F         0
                text26                             1373     1373       46         0
                text25                             1337     1337       3C         0
                text24                              AE6      AE6      143         0
                text23                              672      672      14C         0
                text22                             1711     1711       EF         0
                text21                              7FF      7FF        1         0
                text20                             14AF     14AF       63         0
                text19                              7BE      7BE       40         0
                text18                             1512     1512       68         0
                text17                             13B9     13B9       48         0
                text16                             1401     1401       53         0
                text15                              9E3      9E3      103         0
                text14                              C29      C29      3D7         0
                text13                             1223     1223       1D         0
                text12                             11E6     11E6        D         0
                text11                             11CA     11CA        9         0
                text10                             11D3     11D3        9         0
                text9                              11DC     11DC        A         0
                text8                              157A     157A       69         0
                text7                              1454     1454       5B         0
                text6                              1301     1301       36         0
                text5                              1662     1662       AF         0
                text4                              12D0     12D0       31         0
                text3                              1280     1280       27         0
                text2                              12A7     12A7       29         0
                text1                               8E5      8E5       FE         0
                maintext                             49       49      629         0
                clrtext                            11C2     11C2        8         0
                inittext                           1210     1210       13         0
                idataBANK1                         1200     1200       10         0
                idataBANK0                         11F3     11F3        D         0
                idataCOMMON                         7FE      7FE        1         0

        CLASS   STRCODE        

        CLASS   STRING         
                strings                            1000     1000        E         0

        CLASS   CONST          

        CLASS   ENTRY          

        CLASS   COMMON         
                cstackCOMMON                         70       70        6         1
                dataCOMMON                           7B       7B        1         1
                bssCOMMON                            76       76        5         1

        CLASS   BANK0          
                cstackBANK0                          20       20       33         1
                dataBANK0                            62       62        D         1
                bssBANK0                             53       53        F         1

        CLASS   BANK1          
                dataBANK1                            A0       A0       10         1
                bssBANK1                             B0       B0        8         1

        CLASS   BANK2          

        CLASS   BANK3          

        CLASS   RAM            

        CLASS   ABS1           
                abs_s1                               7E       7E        2         1

        CLASS   SFR0           

        CLASS   SFR1           

        CLASS   SFR2           

        CLASS   SFR3           

        CLASS   CONFIG         
                config                             2007     2007        1         4

        CLASS   IDLOC          

        CLASS   EEDATA         



SEGMENTS        Name                           Load    Length   Top    Selector   Space  Class     Delta

                reset_vec                      000000  000003  000003         0       0  CODE        2
                intentry                       000004  0007FC  000800         8       0  CODE        2
                cstackBANK0                    000020  00004F  00006F        20       1  BANK0       1
                cstackCOMMON                   000070  00000C  00007C        70       1  COMMON      1
                dataBANK1                      0000A0  000018  0000B8        A0       1  BANK1       1
                text28                         000801  000019  00081A      1002       0  CODE        2
                text30                         00081A  0000CB  0008E5      1034       0  CODE        2
                text1                          0008E5  0000FE  0009E3      11CA       0  CODE        2
                text15                         0009E3  000103  000AE6      13C6       0  CODE        2
                text24                         000AE6  000143  000C29      15CC       0  CODE        2
                text14                         000C29  0003D7  001000      1852       0  CODE        2
                strings                        001000  00000E  00100E      2000       0  STRING      2
                text31                         0011BD  000005  0011C2      237A       0  CODE        2
                clrtext                        0011C2  000008  0011CA      2384       0  CODE        2
                text11                         0011CA  000009  0011D3      2394       0  CODE        2
                text10                         0011D3  000009  0011DC      23A6       0  CODE        2
                text9                          0011DC  00000A  0011E6      23B8       0  CODE        2
                text12                         0011E6  00000D  0011F3      23CC       0  CODE        2
                idataBANK0                     0011F3  00000D  001200      23E6       0  CODE        2
                idataBANK1                     001200  000010  001210      2400       0  CODE        2
                inittext                       001210  000013  001223      2420       0  CODE        2
                text13                         001223  00001D  001240      2446       0  CODE        2
                text32                         001240  00001E  00125E      2480       0  CODE        2
                text29                         00125E  000022  001280      24BC       0  CODE        2
                text3                          001280  000027  0012A7      2500       0  CODE        2
                text2                          0012A7  000029  0012D0      254E       0  CODE        2
                text4                          0012D0  000031  001301      25A0       0  CODE        2
                text6                          001301  000036  001337      2602       0  CODE        2
                text25                         001337  00003C  001373      266E       0  CODE        2
                text26                         001373  000046  0013B9      26E6       0  CODE        2
                text17                         0013B9  000048  001401      2772       0  CODE        2
                text16                         001401  000053  001454      2802       0  CODE        2
                text7                          001454  00005B  0014AF      28A8       0  CODE        2
                text20                         0014AF  000063  001512      295E       0  CODE        2
                text18                         001512  000068  00157A      2A24       0  CODE        2
                text8                          00157A  000069  0015E3      2AF4       0  CODE        2
                text27                         0015E3  00007F  001662      2BC6       0  CODE        2
                text5                          001662  0000AF  001711      2CC4       0  CODE        2
                text22                         001711  0000EF  001800      2E22       0  CODE        2


UNUSED ADDRESS RANGES

        Name                Unused          Largest block    Delta
        BANK0            006F-006F              1           1
        BANK1            00B8-00EF             38           1
        BANK2            0110-016F             60           1
        BANK3            0190-01EF             60           1
        CODE             0003-0003              1           2
                         0800-0800              1
                         100E-11BC            1AF
                         1800-1FFF            800
        COMMON           007C-007D              2           1
        CONST            0003-0003              1           2
                         0800-0800              1
                         100E-11BC             F2
                         1800-1FFF            100
        EEDATA           2100-21FF            100           2
        ENTRY            0003-0003              1           2
                         0800-0800              1
                         100E-11BC             F2
                         1800-1FFF            100
        IDLOC            2000-2003              4           2
        RAM              006F-006F              1           1
                         00B8-00EF             38
                         0110-016F             60
                         0190-01EF             60
        SFR0             0000-001F             20           1
        SFR1             0080-009F             20           1
        SFR2             0100-010F             10           1
        SFR3             0180-018F             10           1
        STACK            0110-016F             60           1
        STRCODE          0003-0003              1           2
                         0800-0800              1
                         100E-11BC            1AF
                         1800-1FFF            800
        STRING           0003-0003              1           2
                         0800-0800              1
                         100E-11BC             F2
                         1800-1FFF            100

                                  Symbol Table

?_I2C_Read                     cstackBANK0  0020
?___awdiv                      cstackBANK0  0020
?___awmod                      cstackBANK0  0020
?___lldiv                      cstackBANK0  002D
?___lmul                       cstackBANK0  0020
?___lwdiv                      cstackBANK0  0026
?___lwmod                      cstackBANK0  0020
?___wmul                       cstackBANK0  0020
?_b2d                          cstackBANK0  0026
?_d2b                          cstackBANK0  0029
HT1621_Delay_us@d              cstackBANK0  0022
HT1621_Delay_us@ucDat          cstackBANK0  0020
HT1621_Display_Date@Temp_Data  cstackBANK0  0035
HT1621_Display_Date@date       cstackBANK0  0030
HT1621_Display_Date@mon        cstackBANK0  002E
HT1621_Display_Time@Temp_Data  cstackBANK0  0036
HT1621_Display_Time@hour       cstackBANK0  002E
HT1621_Display_Time@min        cstackBANK0  0030
HT1621_Display_Time@sec        cstackBANK0  0035
HT1621_Display_Year@Temp_Data  cstackBANK0  0032
HT1621_Display_Year@year       cstackBANK0  002E
I2C_Init@freq                  cstackBANK0  003B
I2C_Read@ack                   cstackBANK0  0020
I2C_Read@incoming              cstackBANK0  0024
I2C_Write@data                 cstackBANK0  002D
IR_data_display@Temp_Data      cstackBANK0  002F
IR_data_display@data           cstackBANK0  002A
Setting_display@Temp_Data      cstackBANK0  002F
Setting_display@cursor         cstackBANK0  002E
Setting_display@dp             cstackBANK0  002A
Write1DataHT1621@Addr          cstackBANK0  0027
Write1DataHT1621@Dat           cstackBANK0  0024
Write1DataHT1621@Shift         cstackBANK0  0029
Write1DataHT1621@i             cstackBANK0  0028
WriteCommandHT1621@FunctonCode cstackBANK0  0026
WriteCommandHT1621@Shift       cstackBANK0  0027
WriteCommandHT1621@i           cstackBANK0  0028
_ACKDT                         (abs)        048D
_ACKEN                         (abs)        048C
_CCP2CON                       (abs)        001D
_CCP2IE                        (abs)        0468
_CCP2IF                        (abs)        0068
_GIE                           (abs)        005F
_HT1621_Delay_us               text29       125E
_HT1621_Display_Date           text24       0AE6
_HT1621_Display_Time           text23       0672
_HT1621_Display_Year           text22       1711
_HT1621_Init                   text19       07BE
_HT1621_comi                   bssBANK0     0059
_HT1621_dispram                bssBANK1     00B0
_HT1621_maxcom                 dataCOMMON   007B
_HT1621_num_init               text21       07FF
_HT1621_segi                   bssBANK0     005A
_HT1621_segtab                 strings      1006
_I2C_Begin                     text11       11CA
_I2C_End                       text10       11D3
_I2C_Hold                      text12       11E6
_I2C_Init                      text16       1401
_I2C_Read                      text4        12D0
_I2C_Write                     text9        11DC
_IRKey                         bssBANK0     0053
_IR_data_display               text15       09E3
_LCD_RAM_Tab                   dataBANK1    00A0
_Mode                          bssBANK0     005D
_PEN                           (abs)        048A
_PSA                           (abs)        040B
_RB5                           (abs)        0035
_RCEN                          (abs)        048B
_RD5                           (abs)        0045
_RD6                           (abs)        0046
_RD7                           (abs)        0047
_SEN                           (abs)        0488
_SSPADD                        (abs)        0093
_SSPBUF                        (abs)        0013
_SSPCON                        (abs)        0014
_SSPCON2                       (abs)        0091
_SSPSTAT                       (abs)        0094
_Setting                       bssBANK0     005C
_Setting_display               text14       0C29
_T0CS                          (abs)        040D
_T0IE                          (abs)        005D
_T0IF                          (abs)        005A
_T1CON                         (abs)        0010
_TMR0                          (abs)        0001
_TMR1ON                        (abs)        0080
_TRISB5                        (abs)        0435
_TRISC                         (abs)        0087
_TRISC1                        (abs)        0439
_TRISC3                        (abs)        043B
_TRISC4                        (abs)        043C
_TRISD5                        (abs)        0445
_TRISD6                        (abs)        0446
_TRISD7                        (abs)        0447
_Write1DataHT1621              text27       15E3
_WriteClockHT1621              text28       0801
_WriteCommandHT1621            text20       14AF
__Habs1                        abs1         0000
__Hbank0                       bank0        0000
__Hbank1                       bank1        0000
__Hbank2                       bank2        0000
__Hbank3                       bank3        0000
__HbssBANK0                    bssBANK0     0000
__HbssBANK1                    bssBANK1     0000
__HbssCOMMON                   bssCOMMON    0000
__Hcinit                       cinit        0049
__Hclrtext                     clrtext      0000
__Hcode                        code         0000
__Hcommon                      common       0000
__Hconfig                      config       2008
__HcstackBANK0                 cstackBANK0  0000
__HcstackCOMMON                cstackCOMMON 0000
__HdataBANK0                   dataBANK0    0000
__HdataBANK1                   dataBANK1    0000
__HdataCOMMON                  dataCOMMON   0000
__Heeprom_data                 eeprom_data  0000
__Hend_init                    end_init     000F
__Hfunctab                     functab      0000
__HidataBANK0                  idataBANK0   0000
__HidataBANK1                  idataBANK1   0000
__HidataCOMMON                 idataCOMMON  0000
__Hinit                        init         000C
__Hinittext                    inittext     0000
__Hintentry                    intentry     000C
__Hmaintext                    maintext     0000
__Hpowerup                     powerup      0000
__Hram                         ram          0000
__Hreset_vec                   reset_vec    0003
__Hsfr0                        sfr0         0000
__Hsfr1                        sfr1         0000
__Hsfr2                        sfr2         0000
__Hsfr3                        sfr3         0000
__Hspace_0                     (abs)        1800
__Hspace_1                     (abs)        00B8
__Hspace_2                     (abs)        0000
__Hspace_3                     (abs)        0000
__Hspace_4                     (abs)        400F
__Hstack                       stack        0000
__Hstrings                     strings      0000
__Htext                        text         0000
__Labs1                        abs1         0000
__Lbank0                       bank0        0000
__Lbank1                       bank1        0000
__Lbank2                       bank2        0000
__Lbank3                       bank3        0000
__LbssBANK0                    bssBANK0     0000
__LbssBANK1                    bssBANK1     0000
__LbssCOMMON                   bssCOMMON    0000
__Lcinit                       cinit        000F
__Lclrtext                     clrtext      0000
__Lcode                        code         0000
__Lcommon                      common       0000
__Lconfig                      config       0000
__LcstackBANK0                 cstackBANK0  0000
__LcstackCOMMON                cstackCOMMON 0000
__LdataBANK0                   dataBANK0    0000
__LdataBANK1                   dataBANK1    0000
__LdataCOMMON                  dataCOMMON   0000
__Leeprom_data                 eeprom_data  0000
__Lend_init                    end_init     000C
__Lfunctab                     functab      0000
__LidataBANK0                  idataBANK0   0000
__LidataBANK1                  idataBANK1   0000
__LidataCOMMON                 idataCOMMON  0000
__Linit                        init         000C
__Linittext                    inittext     0000
__Lintentry                    intentry     0004
__Lmaintext                    maintext     0000
__Lpowerup                     powerup      0000
__Lram                         ram          0000
__Lreset_vec                   reset_vec    0000
__Lsfr0                        sfr0         0000
__Lsfr1                        sfr1         0000
__Lsfr2                        sfr2         0000
__Lsfr3                        sfr3         0000
__Lspace_0                     (abs)        0000
__Lspace_1                     (abs)        0000
__Lspace_2                     (abs)        0000
__Lspace_3                     (abs)        0000
__Lspace_4                     (abs)        0000
__Lstack                       stack        0000
__Lstrings                     strings      0000
__Ltext                        text         0000
__S0                           (abs)        1800
__S1                           (abs)        00B8
__S2                           (abs)        0000
__S3                           (abs)        0000
___awdiv                       text8        157A
___awdiv@counter               cstackBANK0  0025
___awdiv@dividend              cstackBANK0  0022
___awdiv@divisor               cstackBANK0  0020
___awdiv@quotient              cstackBANK0  0027
___awdiv@sign                  cstackBANK0  0026
___awmod                       text7        1454
___awmod@counter               cstackBANK0  0025
___awmod@dividend              cstackBANK0  0022
___awmod@divisor               cstackBANK0  0020
___awmod@sign                  cstackBANK0  0026
___int_sp                      stack        0000
___latbits                     (abs)        0002
___lldiv                       text18       1512
___lldiv@counter               cstackBANK0  003A
___lldiv@dividend              cstackBANK0  0031
___lldiv@divisor               cstackBANK0  002D
___lldiv@quotient              cstackBANK0  0036
___lmul                        text17       13B9
___lmul@multiplicand           cstackBANK0  0024
___lmul@multiplier             cstackBANK0  0020
___lmul@product                cstackBANK0  0029
___lwdiv                       text26       1373
___lwdiv@counter               cstackBANK0  002D
___lwdiv@dividend              cstackBANK0  0028
___lwdiv@divisor               cstackBANK0  0026
___lwdiv@quotient              cstackBANK0  002B
___lwmod                       text25       1337
___lwmod@counter               cstackBANK0  0025
___lwmod@dividend              cstackBANK0  0022
___lwmod@divisor               cstackBANK0  0020
___sp                          stack        0000
___stackhi                     (abs)        0000
___stacklo                     (abs)        0000
___wmul                        text3        1280
___wmul@multiplicand           cstackBANK0  0022
___wmul@multiplier             cstackBANK0  0020
___wmul@product                cstackBANK0  0024
__end_of_HT1621_Delay_us       text29       1280
__end_of_HT1621_Display_Date   text24       0C29
__end_of_HT1621_Display_Time   text23       07BE
__end_of_HT1621_Display_Year   text22       1800
__end_of_HT1621_Init           text19       07FE
__end_of_HT1621_num_init       text21       0800
__end_of_HT1621_segtab         strings      100E
__end_of_I2C_Begin             text11       11D3
__end_of_I2C_End               text10       11DC
__end_of_I2C_Hold              text12       11F3
__end_of_I2C_Init              text16       1454
__end_of_I2C_Read              text4        1301
__end_of_I2C_Write             text9        11E6
__end_of_IR_data_display       text15       0AE6
__end_of_Setting_display       text14       1000
__end_of_Write1DataHT1621      text27       1662
__end_of_WriteClockHT1621      text28       081A
__end_of_WriteCommandHT1621    text20       1512
__end_of___awdiv               text8        15E3
__end_of___awmod               text7        14AF
__end_of___lldiv               text18       157A
__end_of___lmul                text17       1401
__end_of___lwdiv               text26       13B9
__end_of___lwmod               text25       1373
__end_of___wmul                text3        12A7
__end_of__initialization       cinit        0045
__end_of__stringtab            strings      1006
__end_of_b2d                   text2        12D0
__end_of_d2b                   text6        1337
__end_of_init_io               text13       1240
__end_of_interrupt_service     text30       08E5
__end_of_main                  maintext     0672
__end_of_one_zero              text32       125E
__end_of_setTime               text5        1711
__end_of_updateTime            text1        09E3
__end_of_wrong                 text31       11C2
__initialization               cinit        000F
__pbssBANK0                    bssBANK0     0053
__pbssBANK1                    bssBANK1     00B0
__pbssCOMMON                   bssCOMMON    0076
__pcstackBANK0                 cstackBANK0  0020
__pcstackCOMMON                cstackCOMMON 0070
__pdataBANK0                   dataBANK0    0062
__pdataBANK1                   dataBANK1    00A0
__pdataCOMMON                  dataCOMMON   007B
__pidataBANK0                  idataBANK0   11F3
__pidataBANK1                  idataBANK1   1200
__pidataCOMMON                 idataCOMMON  07FE
__pintentry                    intentry     0004
__pmaintext                    maintext     0049
__pstrings                     strings      1000
__ptext1                       text1        08E5
__ptext10                      text10       11D3
__ptext11                      text11       11CA
__ptext12                      text12       11E6
__ptext13                      text13       1223
__ptext14                      text14       0C29
__ptext15                      text15       09E3
__ptext16                      text16       1401
__ptext17                      text17       13B9
__ptext18                      text18       1512
__ptext19                      text19       07BE
__ptext2                       text2        12A7
__ptext20                      text20       14AF
__ptext21                      text21       07FF
__ptext22                      text22       1711
__ptext23                      text23       0672
__ptext24                      text24       0AE6
__ptext25                      text25       1337
__ptext26                      text26       1373
__ptext27                      text27       15E3
__ptext28                      text28       0801
__ptext29                      text29       125E
__ptext3                       text3        1280
__ptext30                      text30       081A
__ptext31                      text31       11BD
__ptext32                      text32       1240
__ptext4                       text4        12D0
__ptext5                       text5        1662
__ptext6                       text6        1301
__ptext7                       text7        1454
__ptext8                       text8        157A
__ptext9                       text9        11DC
__size_of_HT1621_Delay_us      (abs)        0000
__size_of_HT1621_Display_Date  (abs)        0000
__size_of_HT1621_Display_Time  (abs)        0000
__size_of_HT1621_Display_Year  (abs)        0000
__size_of_HT1621_Init          (abs)        0000
__size_of_HT1621_num_init      (abs)        0000
__size_of_I2C_Begin            (abs)        0000
__size_of_I2C_End              (abs)        0000
__size_of_I2C_Hold             (abs)        0000
__size_of_I2C_Init             (abs)        0000
__size_of_I2C_Read             (abs)        0000
__size_of_I2C_Write            (abs)        0000
__size_of_IR_data_display      (abs)        0000
__size_of_Setting_display      (abs)        0000
__size_of_Write1DataHT1621     (abs)        0000
__size_of_WriteClockHT1621     (abs)        0000
__size_of_WriteCommandHT1621   (abs)        0000
__size_of___awdiv              (abs)        0000
__size_of___awmod              (abs)        0000
__size_of___lldiv              (abs)        0000
__size_of___lmul               (abs)        0000
__size_of___lwdiv              (abs)        0000
__size_of___lwmod              (abs)        0000
__size_of___wmul               (abs)        0000
__size_of_b2d                  (abs)        0000
__size_of_d2b                  (abs)        0000
__size_of_init_io              (abs)        0000
__size_of_interrupt_service    (abs)        0000
__size_of_main                 (abs)        0000
__size_of_one_zero             (abs)        0000
__size_of_setTime              (abs)        0000
__size_of_updateTime           (abs)        0000
__size_of_wrong                (abs)        0000
__stringbase                   strings      1005
__stringtab                    strings      1000
_b2d                           text2        12A7
_buf1                          bssCOMMON    0077
_code                          bssBANK0     0057
_code_data                     bssCOMMON    0079
_cursor                        bssBANK0     005B
_d2b                           text6        1301
_date                          dataBANK0    0068
_display                       bssBANK0     005E
_head_ok                       bssCOMMON    0076
_hour                          dataBANK0    0066
_init_io                       text13       1223
_int_times                     bssCOMMON    0078
_interrupt_service             text30       081A
_main                          maintext     0049
_main$927                      cstackBANK0  0051
_main$928                      cstackBANK0  004F
_min                           dataBANK0    0064
_month                         dataBANK0    006A
_one_zero                      text32       1240
_sec                           dataBANK0    0062
_setTime                       text5        1662
_tmr_times                     bssCOMMON    007A
_updateTime                    text1        08E5
_wrong                         text31       11BD
_year                          dataBANK0    006C
b2d@to_convert                 cstackBANK0  0026
btemp                          (abs)        007E
clear_ram0                     clrtext      11C2
d2b@to_convert                 cstackBANK0  0029
end_of_initialization          cinit        0045
init_fetch0                    inittext     1210
init_ram0                      inittext     1214
interrupt_function             intentry     0004
intlevel0                      functab      0000
intlevel1                      functab      0000
intlevel2                      functab      0000
intlevel3                      functab      0000
intlevel4                      functab      0000
intlevel5                      functab      0000
reset_vec                      reset_vec    0000
saved_w                        (abs)        007E
start                          init         000C
start_initialization           cinit        000F
wrong@errorid                  cstackCOMMON 0070
wtemp0                         (abs)        007E


MODULE INFORMATION

Module		Function		Class		Link	Load	Size
D:\Program Files\Microchip\xc8\v2.32\pic\sources\c90\common\lwdiv.c
		___lwdiv       		CODE           	1373	0000	70

D:\Program Files\Microchip\xc8\v2.32\pic\sources\c90\common\lwdiv.c estimated size: 70

D:\Program Files\Microchip\xc8\v2.32\pic\sources\c90\common\awdiv.c
		___awdiv       		CODE           	157A	0000	105

D:\Program Files\Microchip\xc8\v2.32\pic\sources\c90\common\awdiv.c estimated size: 105

clock.c
		_I2C_Write     		CODE           	11DC	0000	10
		_d2b           		CODE           	1301	0000	54
		_I2C_End       		CODE           	11D3	0000	9
		_b2d           		CODE           	12A7	0000	41
		_I2C_Read      		CODE           	12D0	0000	49
		_I2C_Init      		CODE           	1401	0000	83
		_setTime       		CODE           	1662	0000	175
		_I2C_Hold      		CODE           	11E6	0000	13
		_updateTime    		CODE           	08E5	0000	254
		_I2C_Begin     		CODE           	11CA	0000	9

clock.c estimated size: 697

irf.c
		_one_zero      		CODE           	1240	0000	30
		_wrong         		CODE           	11BD	0000	5
		_init_io       		CODE           	1223	0000	29

irf.c estimated size: 64

eleclockmain.c
		_main          		CODE           	0049	0000	1577
		_interrupt_service		CODE           	081A	0000	203

eleclockmain.c estimated size: 1780

D:\Program Files\Microchip\xc8\v2.32\pic\sources\c90\common\Umul16.c
		___wmul        		CODE           	1280	0000	39

D:\Program Files\Microchip\xc8\v2.32\pic\sources\c90\common\Umul16.c estimated size: 39

shared
		__stringtab    		STRING         	1000	0000	6
		_HT1621_segtab 		STRING         	1006	0000	8
		__initialization		CODE           	000F	0000	54

shared estimated size: 68

ht1621.c
		_HT1621_Display_Date		CODE           	0AE6	0000	323
		_HT1621_Display_Time		CODE           	0672	0000	332
		_IR_data_display		CODE           	09E3	0000	259
		_WriteClockHT1621		CODE           	0801	0000	25
		_HT1621_Init   		CODE           	07BE	0000	64
		_HT1621_Display_Year		CODE           	1711	0000	239
		_Setting_display		CODE           	0C29	0000	983
		_Write1DataHT1621		CODE           	15E3	0000	127
		_HT1621_num_init		CODE           	07FF	0000	1
		_HT1621_Delay_us		CODE           	125E	0000	34
		_WriteCommandHT1621		CODE           	14AF	0000	99

ht1621.c estimated size: 2486

D:\Program Files\Microchip\xc8\v2.32\pic\sources\c90\common\lwmod.c
		___lwmod       		CODE           	1337	0000	60

D:\Program Files\Microchip\xc8\v2.32\pic\sources\c90\common\lwmod.c estimated size: 60

D:\Program Files\Microchip\xc8\v2.32\pic\sources\c90\common\awmod.c
		___awmod       		CODE           	1454	0000	91

D:\Program Files\Microchip\xc8\v2.32\pic\sources\c90\common\awmod.c estimated size: 91

D:\Program Files\Microchip\xc8\v2.32\pic\sources\c90\common\Umul32.c
		___lmul        		CODE           	13B9	0000	72

D:\Program Files\Microchip\xc8\v2.32\pic\sources\c90\common\Umul32.c estimated size: 72

D:\Program Files\Microchip\xc8\v2.32\pic\sources\c90\common\__lldiv.c
		___lldiv       		CODE           	1512	0000	104

D:\Program Files\Microchip\xc8\v2.32\pic\sources\c90\common\__lldiv.c estimated size: 104

